; Function Attrs: mustprogress sspstrong uwtable
define internal void @_ZL18__itt_report_erroriz(i32 noundef range(i32 1, 7) %0, ...) unnamed_addr #0 {
  %2 = alloca [1 x %struct.__va_list_tag], align 16
  call void @llvm.lifetime.start.p0(i64 24, ptr nonnull %2) #17
  call void @llvm.va_start.p0(ptr nonnull %2)
  %3 = load ptr, ptr getelementptr inbounds nuw (i8, ptr @__itt__ittapi_global, i64 104), align 8, !tbaa !108
  %.not = icmp eq ptr %3, null
  br i1 %.not, label %5, label %4

4:                                                ; preds = %1
  call void %3(i32 noundef %0, ptr noundef nonnull %2)
  br label %5

5:                                                ; preds = %4, %1
  call void @llvm.va_end.p0(ptr nonnull %2)
  call void @llvm.lifetime.end.p0(i64 24, ptr nonnull %2) #17
  ret void
}